target datalayout = "e-m:e-p270:32:32-p271:32:32-p272:64:64-i64:64-i128:128-f80:128-n8:16:32:64-S128"
target triple = "x86_64-pc-linux-gnu"

%class.Dict = type { ptr, ptr, i32, i32, ptr, ptr }
%class.bucket = type { i32, i32, ptr }
%class.Arena = type { i8, i8, i64, ptr, ptr, ptr, ptr }

; Function Attrs: mustprogress nounwind uwtable
define linkonce_odr hidden noundef i64 @_Z13pointer_deltaPVKvS0_m(ptr noundef %0, ptr noundef %1, i64 noundef %2) #1 comdat {
  %4 = alloca ptr, align 8
  %5 = alloca ptr, align 8
  %6 = alloca i64, align 8
  store ptr %0, ptr %4, align 8
  store ptr %1, ptr %5, align 8
  store i64 %2, ptr %6, align 8
  %7 = load ptr, ptr %4, align 8
  %8 = ptrtoint ptr %7 to i64
  %9 = load ptr, ptr %5, align 8
  %10 = ptrtoint ptr %9 to i64
  %11 = sub i64 %8, %10
  %12 = load i64, ptr %6, align 8
  %13 = udiv i64 %11, %12
  ret i64 %13
}

; Function Attrs: mustprogress nounwind uwtable
define linkonce_odr hidden noundef ptr @_ZN5Arena16internal_amallocEmN17AllocFailStrategy13AllocFailEnumE(ptr noundef nonnull align 8 dereferenceable(48) %0, i64 noundef %1, i32 noundef %2) #1 comdat align 2 {
  %4 = alloca ptr, align 8
  %5 = alloca ptr, align 8
  %6 = alloca i64, align 8
  %7 = alloca i32, align 4
  %8 = alloca ptr, align 8
  store ptr %0, ptr %5, align 8
  store i64 %1, ptr %6, align 8
  store i32 %2, ptr %7, align 4
  %9 = load ptr, ptr %5, align 8
  %10 = getelementptr inbounds %class.Arena, ptr %9, i32 0, i32 6
  %11 = load ptr, ptr %10, align 8
  %12 = getelementptr inbounds %class.Arena, ptr %9, i32 0, i32 5
  %13 = load ptr, ptr %12, align 8
  %14 = call noundef i64 @_Z13pointer_deltaPVKvS0_m(ptr noundef %11, ptr noundef %13, i64 noundef 1)
  %15 = load i64, ptr %6, align 8
  %16 = icmp uge i64 %14, %15
  br i1 %16, label %17, label %25

17:                                               ; preds = %3
  %18 = getelementptr inbounds %class.Arena, ptr %9, i32 0, i32 5
  %19 = load ptr, ptr %18, align 8
  store ptr %19, ptr %8, align 8
  %20 = load i64, ptr %6, align 8
  %21 = getelementptr inbounds %class.Arena, ptr %9, i32 0, i32 5
  %22 = load ptr, ptr %21, align 8
  %23 = getelementptr inbounds i8, ptr %22, i64 %20
  store ptr %23, ptr %21, align 8
  %24 = load ptr, ptr %8, align 8
  store ptr %24, ptr %4, align 8
  br label %29

25:                                               ; preds = %3
  %26 = load i64, ptr %6, align 8
  %27 = load i32, ptr %7, align 4
  %28 = call noundef ptr @_ZN5Arena4growEmN17AllocFailStrategy13AllocFailEnumE(ptr noundef nonnull align 8 dereferenceable(48) %9, i64 noundef %26, i32 noundef %27)
  store ptr %28, ptr %4, align 8
  br label %29

29:                                               ; preds = %25, %17
  %30 = load ptr, ptr %4, align 8
  ret ptr %30
}

; Function Attrs: mustprogress nounwind uwtable
define linkonce_odr hidden noundef ptr @_ZN5Arena12AmallocWordsEmN17AllocFailStrategy13AllocFailEnumE(ptr noundef nonnull align 8 dereferenceable(48) %0, i64 noundef %1, i32 noundef %2) #1 comdat align 2 {
  %4 = alloca ptr, align 8
  %5 = alloca i64, align 8
  %6 = alloca i32, align 4
  store ptr %0, ptr %4, align 8
  store i64 %1, ptr %5, align 8
  store i32 %2, ptr %6, align 4
  %7 = load ptr, ptr %4, align 8
  %8 = load i64, ptr %5, align 8
  %9 = load i32, ptr %6, align 4
  %10 = call noundef ptr @_ZN5Arena16internal_amallocEmN17AllocFailStrategy13AllocFailEnumE(ptr noundef nonnull align 8 dereferenceable(48) %7, i64 noundef %8, i32 noundef %9)
  ret ptr %10
}

; Function Attrs: mustprogress nounwind uwtable
define hidden void @_ZN4DictC2ERKS_P5Arena(ptr noundef nonnull align 8 dereferenceable(40) %0, ptr noundef nonnull align 8 dereferenceable(40) %1, ptr noundef %2) unnamed_addr #1 align 2 {
  %4 = alloca ptr, align 8
  %5 = alloca ptr, align 8
  %6 = alloca ptr, align 8
  %7 = alloca i32, align 4
  store ptr %0, ptr %4, align 8
  store ptr %1, ptr %5, align 8
  store ptr %2, ptr %6, align 8
  %8 = load ptr, ptr %4, align 8
  %9 = getelementptr inbounds %class.Dict, ptr %8, i32 0, i32 0
  %10 = load ptr, ptr %6, align 8
  store ptr %10, ptr %9, align 8
  %11 = getelementptr inbounds %class.Dict, ptr %8, i32 0, i32 2
  %12 = load ptr, ptr %5, align 8
  %13 = getelementptr inbounds %class.Dict, ptr %12, i32 0, i32 2
  %14 = load i32, ptr %13, align 8
  store i32 %14, ptr %11, align 8
  %15 = getelementptr inbounds %class.Dict, ptr %8, i32 0, i32 3
  %16 = load ptr, ptr %5, align 8
  %17 = getelementptr inbounds %class.Dict, ptr %16, i32 0, i32 3
  %18 = load i32, ptr %17, align 4
  store i32 %18, ptr %15, align 4
  %19 = getelementptr inbounds %class.Dict, ptr %8, i32 0, i32 4
  %20 = load ptr, ptr %5, align 8
  %21 = getelementptr inbounds %class.Dict, ptr %20, i32 0, i32 4
  %22 = load ptr, ptr %21, align 8
  store ptr %22, ptr %19, align 8
  %23 = getelementptr inbounds %class.Dict, ptr %8, i32 0, i32 5
  %24 = load ptr, ptr %5, align 8
  %25 = getelementptr inbounds %class.Dict, ptr %24, i32 0, i32 5
  %26 = load ptr, ptr %25, align 8
  store ptr %26, ptr %23, align 8
  %27 = getelementptr inbounds %class.Dict, ptr %8, i32 0, i32 0
  %28 = load ptr, ptr %27, align 8
  %29 = getelementptr inbounds %class.Dict, ptr %8, i32 0, i32 2
  %30 = load i32, ptr %29, align 8
  %31 = zext i32 %30 to i64
  %32 = mul i64 16, %31
  %33 = call noundef ptr @_ZN5Arena12AmallocWordsEmN17AllocFailStrategy13AllocFailEnumE(ptr noundef nonnull align 8 dereferenceable(48) %28, i64 noundef %32, i32 noundef 0)
  %34 = getelementptr inbounds %class.Dict, ptr %8, i32 0, i32 1
  store ptr %33, ptr %34, align 8
  %35 = getelementptr inbounds %class.Dict, ptr %8, i32 0, i32 1
  %36 = load ptr, ptr %35, align 8
  %37 = load ptr, ptr %5, align 8
  %38 = getelementptr inbounds %class.Dict, ptr %37, i32 0, i32 1
  %39 = load ptr, ptr %38, align 8
  %40 = getelementptr inbounds %class.Dict, ptr %8, i32 0, i32 2
  %41 = load i32, ptr %40, align 8
  %42 = zext i32 %41 to i64
  %43 = mul i64 16, %42
  call void @llvm.memcpy.p0.p0.i64(ptr align 1 %36, ptr align 1 %39, i64 %43, i1 false)
  store i32 0, ptr %7, align 4
  br label %44

44:                                               ; preds = %104, %3
  %45 = load i32, ptr %7, align 4
  %46 = getelementptr inbounds %class.Dict, ptr %8, i32 0, i32 2
  %47 = load i32, ptr %46, align 8
  %48 = icmp ult i32 %45, %47
  br i1 %48, label %49, label %107

49:                                               ; preds = %44
  %50 = getelementptr inbounds %class.Dict, ptr %8, i32 0, i32 1
  %51 = load ptr, ptr %50, align 8
  %52 = load i32, ptr %7, align 4
  %53 = zext i32 %52 to i64
  %54 = getelementptr inbounds %class.bucket, ptr %51, i64 %53
  %55 = getelementptr inbounds %class.bucket, ptr %54, i32 0, i32 2
  %56 = load ptr, ptr %55, align 8
  %57 = icmp ne ptr %56, null
  br i1 %57, label %59, label %58

58:                                               ; preds = %49
  br label %104

59:                                               ; preds = %49
  %60 = getelementptr inbounds %class.Dict, ptr %8, i32 0, i32 0
  %61 = load ptr, ptr %60, align 8
  %62 = getelementptr inbounds %class.Dict, ptr %8, i32 0, i32 1
  %63 = load ptr, ptr %62, align 8
  %64 = load i32, ptr %7, align 4
  %65 = zext i32 %64 to i64
  %66 = getelementptr inbounds %class.bucket, ptr %63, i64 %65
  %67 = getelementptr inbounds %class.bucket, ptr %66, i32 0, i32 1
  %68 = load i32, ptr %67, align 4
  %69 = zext i32 %68 to i64
  %70 = mul i64 8, %69
  %71 = mul i64 %70, 2
  %72 = call noundef ptr @_ZN5Arena12AmallocWordsEmN17AllocFailStrategy13AllocFailEnumE(ptr noundef nonnull align 8 dereferenceable(48) %61, i64 noundef %71, i32 noundef 0)
  %73 = getelementptr inbounds %class.Dict, ptr %8, i32 0, i32 1
  %74 = load ptr, ptr %73, align 8
  %75 = load i32, ptr %7, align 4
  %76 = zext i32 %75 to i64
  %77 = getelementptr inbounds %class.bucket, ptr %74, i64 %76
  %78 = getelementptr inbounds %class.bucket, ptr %77, i32 0, i32 2
  store ptr %72, ptr %78, align 8
  %79 = getelementptr inbounds %class.Dict, ptr %8, i32 0, i32 1
  %80 = load ptr, ptr %79, align 8
  %81 = load i32, ptr %7, align 4
  %82 = zext i32 %81 to i64
  %83 = getelementptr inbounds %class.bucket, ptr %80, i64 %82
  %84 = getelementptr inbounds %class.bucket, ptr %83, i32 0, i32 2
  %85 = load ptr, ptr %84, align 8
  %86 = load ptr, ptr %5, align 8
  %87 = getelementptr inbounds %class.Dict, ptr %86, i32 0, i32 1
  %88 = load ptr, ptr %87, align 8
  %89 = load i32, ptr %7, align 4
  %90 = zext i32 %89 to i64
  %91 = getelementptr inbounds %class.bucket, ptr %88, i64 %90
  %92 = getelementptr inbounds %class.bucket, ptr %91, i32 0, i32 2
  %93 = load ptr, ptr %92, align 8
  %94 = getelementptr inbounds %class.Dict, ptr %8, i32 0, i32 1
  %95 = load ptr, ptr %94, align 8
  %96 = load i32, ptr %7, align 4
  %97 = zext i32 %96 to i64
  %98 = getelementptr inbounds %class.bucket, ptr %95, i64 %97
  %99 = getelementptr inbounds %class.bucket, ptr %98, i32 0, i32 0
  %100 = load i32, ptr %99, align 8
  %101 = mul i32 %100, 2
  %102 = zext i32 %101 to i64
  %103 = mul i64 %102, 8
  call void @llvm.memcpy.p0.p0.i64(ptr align 8 %85, ptr align 8 %93, i64 %103, i1 false)
  br label %104

104:                                              ; preds = %59, %58
  %105 = load i32, ptr %7, align 4
  %106 = add i32 %105, 1
  store i32 %106, ptr %7, align 4
  br label %44, !llvm.loop !6

107:                                              ; preds = %44
  ret void
}