; Function Attrs: mustprogress nounwind uwtable
define hidden void @_ZN4DictC2ERKS_P5Arena(ptr nocapture noundef nonnull align 8 dereferenceable(40) %0, ptr nocapture noundef nonnull readonly align 8 dereferenceable(40) %1, ptr noundef %2) unnamed_addr #0 align 2 {
  store ptr %2, ptr %0, align 8
  %4 = getelementptr inbounds i8, ptr %0, i64 16
  %5 = getelementptr inbounds i8, ptr %1, i64 16
  %6 = load i32, ptr %5, align 8
  store i32 %6, ptr %4, align 8
  %7 = getelementptr inbounds i8, ptr %0, i64 20
  %8 = getelementptr inbounds i8, ptr %1, i64 20
  %9 = load i32, ptr %8, align 4
  store i32 %9, ptr %7, align 4
  %10 = getelementptr inbounds i8, ptr %0, i64 24
  %11 = getelementptr inbounds i8, ptr %1, i64 24
  %12 = load ptr, ptr %11, align 8
  store ptr %12, ptr %10, align 8
  %13 = getelementptr inbounds i8, ptr %0, i64 32
  %14 = getelementptr inbounds i8, ptr %1, i64 32
  %15 = load ptr, ptr %14, align 8
  store ptr %15, ptr %13, align 8
  %16 = zext i32 %6 to i64
  %17 = shl nuw nsw i64 %16, 4
  %18 = getelementptr inbounds i8, ptr %2, i64 40
  %19 = load ptr, ptr %18, align 8
  %20 = getelementptr inbounds i8, ptr %2, i64 32
  %21 = load ptr, ptr %20, align 8
  %22 = ptrtoint ptr %19 to i64
  %23 = ptrtoint ptr %21 to i64
  %24 = sub i64 %22, %23
  %.not.i.i = icmp ult i64 %24, %17
  br i1 %.not.i.i, label %27, label %25

25:                                               ; preds = %3
  %26 = getelementptr inbounds i8, ptr %21, i64 %17
  store ptr %26, ptr %20, align 8
  br label %_ZN5Arena12AmallocWordsEmN17AllocFailStrategy13AllocFailEnumE.exit

27:                                               ; preds = %3
  %28 = tail call noundef ptr @_ZN5Arena4growEmN17AllocFailStrategy13AllocFailEnumE(ptr noundef nonnull align 8 dereferenceable(48) %2, i64 noundef %17, i32 noundef 0) #11
  br label %_ZN5Arena12AmallocWordsEmN17AllocFailStrategy13AllocFailEnumE.exit

_ZN5Arena12AmallocWordsEmN17AllocFailStrategy13AllocFailEnumE.exit: ; preds = %25, %27
  %.0.i.i = phi ptr [ %21, %25 ], [ %28, %27 ]
  %29 = getelementptr inbounds i8, ptr %0, i64 8
  store ptr %.0.i.i, ptr %29, align 8
  %30 = getelementptr inbounds i8, ptr %1, i64 8
  %31 = load ptr, ptr %30, align 8
  %32 = load i32, ptr %4, align 8
  %33 = zext i32 %32 to i64
  %34 = shl nuw nsw i64 %33, 4
  tail call void @llvm.memcpy.p0.p0.i64(ptr align 1 %.0.i.i, ptr align 1 %31, i64 %34, i1 false)
  %35 = load i32, ptr %4, align 8
  %.not19 = icmp eq i32 %35, 0
  br i1 %.not19, label %._crit_edge, label %.lr.ph

.lr.ph:                                           ; preds = %_ZN5Arena12AmallocWordsEmN17AllocFailStrategy13AllocFailEnumE.exit, %71
  %36 = phi i32 [ %72, %71 ], [ %35, %_ZN5Arena12AmallocWordsEmN17AllocFailStrategy13AllocFailEnumE.exit ]
  %indvars.iv = phi i64 [ %indvars.iv.next, %71 ], [ 0, %_ZN5Arena12AmallocWordsEmN17AllocFailStrategy13AllocFailEnumE.exit ]
  %37 = load ptr, ptr %29, align 8
  %38 = getelementptr inbounds %class.bucket, ptr %37, i64 %indvars.iv
  %39 = getelementptr inbounds i8, ptr %38, i64 8
  %40 = load ptr, ptr %39, align 8
  %.not = icmp eq ptr %40, null
  br i1 %.not, label %71, label %41

41:                                               ; preds = %.lr.ph
  %42 = load ptr, ptr %0, align 8
  %43 = getelementptr inbounds i8, ptr %38, i64 4
  %44 = load i32, ptr %43, align 4
  %45 = zext i32 %44 to i64
  %46 = shl nuw nsw i64 %45, 4
  %47 = getelementptr inbounds i8, ptr %42, i64 40
  %48 = load ptr, ptr %47, align 8
  %49 = getelementptr inbounds i8, ptr %42, i64 32
  %50 = load ptr, ptr %49, align 8
  %51 = ptrtoint ptr %48 to i64
  %52 = ptrtoint ptr %50 to i64
  %53 = sub i64 %51, %52
  %.not.i.i15 = icmp ult i64 %53, %46
  br i1 %.not.i.i15, label %56, label %54

54:                                               ; preds = %41
  %55 = getelementptr inbounds i8, ptr %50, i64 %46
  store ptr %55, ptr %49, align 8
  br label %_ZN5Arena12AmallocWordsEmN17AllocFailStrategy13AllocFailEnumE.exit17

56:                                               ; preds = %41
  %57 = tail call noundef ptr @_ZN5Arena4growEmN17AllocFailStrategy13AllocFailEnumE(ptr noundef nonnull align 8 dereferenceable(48) %42, i64 noundef %46, i32 noundef 0) #11
  br label %_ZN5Arena12AmallocWordsEmN17AllocFailStrategy13AllocFailEnumE.exit17

_ZN5Arena12AmallocWordsEmN17AllocFailStrategy13AllocFailEnumE.exit17: ; preds = %54, %56
  %.0.i.i16 = phi ptr [ %50, %54 ], [ %57, %56 ]
  %58 = load ptr, ptr %29, align 8
  %59 = getelementptr inbounds %class.bucket, ptr %58, i64 %indvars.iv, i32 2
  store ptr %.0.i.i16, ptr %59, align 8
  %60 = load ptr, ptr %29, align 8
  %61 = getelementptr inbounds %class.bucket, ptr %60, i64 %indvars.iv
  %62 = getelementptr inbounds i8, ptr %61, i64 8
  %63 = load ptr, ptr %62, align 8
  %64 = load ptr, ptr %30, align 8
  %65 = getelementptr inbounds %class.bucket, ptr %64, i64 %indvars.iv, i32 2
  %66 = load ptr, ptr %65, align 8
  %67 = load i32, ptr %61, align 8
  %68 = shl i32 %67, 1
  %69 = zext i32 %68 to i64
  %70 = shl nuw nsw i64 %69, 3
  tail call void @llvm.memcpy.p0.p0.i64(ptr align 8 %63, ptr align 8 %66, i64 %70, i1 false)
  %.pre = load i32, ptr %4, align 8
  br label %71

71:                                               ; preds = %.lr.ph, %_ZN5Arena12AmallocWordsEmN17AllocFailStrategy13AllocFailEnumE.exit17
  %72 = phi i32 [ %36, %.lr.ph ], [ %.pre, %_ZN5Arena12AmallocWordsEmN17AllocFailStrategy13AllocFailEnumE.exit17 ]
  %indvars.iv.next = add nuw nsw i64 %indvars.iv, 1
  %73 = zext i32 %72 to i64
  %74 = icmp ult i64 %indvars.iv.next, %73
  br i1 %74, label %.lr.ph, label %._crit_edge, !llvm.loop !6

._crit_edge:                                      ; preds = %71, %_ZN5Arena12AmallocWordsEmN17AllocFailStrategy13AllocFailEnumE.exit
  ret void
}